target datalayout = "e-m:e-p270:32:32-p271:32:32-p272:64:64-i64:64-i128:128-f80:128-n8:16:32:64-S128"
target triple = "x86_64-pc-linux-gnu"

@comment_line_str = external global ptr, align 8
@.str.33 = private unnamed_addr constant [12 x i8] c"Conflicts:\0A\00", align 1

; Function Attrs: nounwind uwtable
define dso_local i64 @ignored_log_message_bytes(ptr noundef %0, i64 noundef %1) #0 {
  %3 = alloca ptr, align 8
  %4 = alloca i64, align 8
  %5 = alloca i64, align 8
  %6 = alloca i64, align 8
  %7 = alloca i32, align 4
  %8 = alloca i64, align 8
  %9 = alloca ptr, align 8
  store ptr %0, ptr %3, align 8, !tbaa !15
  store i64 %1, ptr %4, align 8, !tbaa !47
  call void @llvm.lifetime.start.p0(i64 8, ptr %5) #11
  store i64 0, ptr %5, align 8, !tbaa !47
  call void @llvm.lifetime.start.p0(i64 8, ptr %6) #11
  store i64 0, ptr %6, align 8, !tbaa !47
  call void @llvm.lifetime.start.p0(i64 4, ptr %7) #11
  store i32 0, ptr %7, align 4, !tbaa !11
  call void @llvm.lifetime.start.p0(i64 8, ptr %8) #11
  %10 = load ptr, ptr %3, align 8, !tbaa !15
  %11 = load i64, ptr %4, align 8, !tbaa !47
  %12 = call i64 @wt_status_locate_end(ptr noundef %10, i64 noundef %11)
  store i64 %12, ptr %8, align 8, !tbaa !47
  br label %13

13:                                               ; preds = %87, %2
  %14 = load i64, ptr %6, align 8, !tbaa !47
  %15 = load i64, ptr %8, align 8, !tbaa !47
  %16 = icmp ult i64 %14, %15
  br i1 %16, label %17, label %93

17:                                               ; preds = %13
  call void @llvm.lifetime.start.p0(i64 8, ptr %9) #11
  %18 = load ptr, ptr %3, align 8, !tbaa !15
  %19 = load i64, ptr %6, align 8, !tbaa !47
  %20 = getelementptr inbounds nuw i8, ptr %18, i64 %19
  %21 = load i64, ptr %4, align 8, !tbaa !47
  %22 = load i64, ptr %6, align 8, !tbaa !47
  %23 = sub i64 %21, %22
  %24 = call ptr @memchr(ptr noundef %20, i32 noundef 10, i64 noundef %23) #13
  store ptr %24, ptr %9, align 8, !tbaa !15
  %25 = load ptr, ptr %9, align 8, !tbaa !15
  %26 = icmp ne ptr %25, null
  br i1 %26, label %31, label %27

27:                                               ; preds = %17
  %28 = load ptr, ptr %3, align 8, !tbaa !15
  %29 = load i64, ptr %4, align 8, !tbaa !47
  %30 = getelementptr inbounds nuw i8, ptr %28, i64 %29
  store ptr %30, ptr %9, align 8, !tbaa !15
  br label %34

31:                                               ; preds = %17
  %32 = load ptr, ptr %9, align 8, !tbaa !15
  %33 = getelementptr inbounds nuw i8, ptr %32, i32 1
  store ptr %33, ptr %9, align 8, !tbaa !15
  br label %34

34:                                               ; preds = %31, %27
  %35 = load ptr, ptr %3, align 8, !tbaa !15
  %36 = load i64, ptr %6, align 8, !tbaa !47
  %37 = getelementptr inbounds nuw i8, ptr %35, i64 %36
  %38 = load i64, ptr %8, align 8, !tbaa !47
  %39 = load i64, ptr %6, align 8, !tbaa !47
  %40 = sub i64 %38, %39
  %41 = load ptr, ptr @comment_line_str, align 8, !tbaa !15
  %42 = call i32 @starts_with_mem(ptr noundef %37, i64 noundef %40, ptr noundef %41)
  %43 = icmp ne i32 %42, 0
  br i1 %43, label %51, label %44

44:                                               ; preds = %34
  %45 = load ptr, ptr %3, align 8, !tbaa !15
  %46 = load i64, ptr %6, align 8, !tbaa !47
  %47 = getelementptr inbounds nuw i8, ptr %45, i64 %46
  %48 = load i8, ptr %47, align 1, !tbaa !19
  %49 = sext i8 %48 to i32
  %50 = icmp eq i32 %49, 10
  br i1 %50, label %51, label %57

51:                                               ; preds = %44, %34
  %52 = load i64, ptr %5, align 8, !tbaa !47
  %53 = icmp ne i64 %52, 0
  br i1 %53, label %56, label %54

54:                                               ; preds = %51
  %55 = load i64, ptr %6, align 8, !tbaa !47
  store i64 %55, ptr %5, align 8, !tbaa !47
  br label %56

56:                                               ; preds = %54, %51
  br label %87

57:                                               ; preds = %44
  %58 = load ptr, ptr %3, align 8, !tbaa !15
  %59 = load i64, ptr %6, align 8, !tbaa !47
  %60 = getelementptr inbounds nuw i8, ptr %58, i64 %59
  %61 = call i32 @starts_with(ptr noundef %60, ptr noundef @.str.33)
  %62 = icmp ne i32 %61, 0
  br i1 %62, label %63, label %69

63:                                               ; preds = %57
  store i32 1, ptr %7, align 4, !tbaa !11
  %64 = load i64, ptr %5, align 8, !tbaa !47
  %65 = icmp ne i64 %64, 0
  br i1 %65, label %68, label %66

66:                                               ; preds = %63
  %67 = load i64, ptr %6, align 8, !tbaa !47
  store i64 %67, ptr %5, align 8, !tbaa !47
  br label %68

68:                                               ; preds = %66, %63
  br label %86

69:                                               ; preds = %57
  %70 = load i32, ptr %7, align 4, !tbaa !11
  %71 = icmp ne i32 %70, 0
  br i1 %71, label %72, label %80

72:                                               ; preds = %69
  %73 = load ptr, ptr %3, align 8, !tbaa !15
  %74 = load i64, ptr %6, align 8, !tbaa !47
  %75 = getelementptr inbounds nuw i8, ptr %73, i64 %74
  %76 = load i8, ptr %75, align 1, !tbaa !19
  %77 = sext i8 %76 to i32
  %78 = icmp eq i32 %77, 9
  br i1 %78, label %79, label %80

79:                                               ; preds = %72
  br label %85

80:                                               ; preds = %72, %69
  %81 = load i64, ptr %5, align 8, !tbaa !47
  %82 = icmp ne i64 %81, 0
  br i1 %82, label %83, label %84

83:                                               ; preds = %80
  store i64 0, ptr %5, align 8, !tbaa !47
  store i32 0, ptr %7, align 4, !tbaa !11
  br label %84

84:                                               ; preds = %83, %80
  br label %85

85:                                               ; preds = %84, %79
  br label %86

86:                                               ; preds = %85, %68
  br label %87

87:                                               ; preds = %86, %56
  %88 = load ptr, ptr %9, align 8, !tbaa !15
  %89 = load ptr, ptr %3, align 8, !tbaa !15
  %90 = ptrtoint ptr %88 to i64
  %91 = ptrtoint ptr %89 to i64
  %92 = sub i64 %90, %91
  store i64 %92, ptr %6, align 8, !tbaa !47
  call void @llvm.lifetime.end.p0(i64 8, ptr %9) #11
  br label %13, !llvm.loop !224

93:                                               ; preds = %13
  %94 = load i64, ptr %5, align 8, !tbaa !47
  %95 = icmp ne i64 %94, 0
  br i1 %95, label %96, label %100

96:                                               ; preds = %93
  %97 = load i64, ptr %4, align 8, !tbaa !47
  %98 = load i64, ptr %5, align 8, !tbaa !47
  %99 = sub i64 %97, %98
  br label %104

100:                                              ; preds = %93
  %101 = load i64, ptr %4, align 8, !tbaa !47
  %102 = load i64, ptr %8, align 8, !tbaa !47
  %103 = sub i64 %101, %102
  br label %104

104:                                              ; preds = %100, %96
  %105 = phi i64 [ %99, %96 ], [ %103, %100 ]
  call void @llvm.lifetime.end.p0(i64 8, ptr %8) #11
  call void @llvm.lifetime.end.p0(i64 4, ptr %7) #11
  call void @llvm.lifetime.end.p0(i64 8, ptr %6) #11
  call void @llvm.lifetime.end.p0(i64 8, ptr %5) #11
  ret i64 %105
}