; Function Attrs: nounwind uwtable
define dso_local i64 @ignored_log_message_bytes(ptr noundef %0, i64 noundef %1) local_unnamed_addr #0 {
  %3 = tail call i64 @wt_status_locate_end(ptr noundef %0, i64 noundef %1) #24
  %.not53 = icmp eq i64 %3, 0
  br i1 %.not53, label %._crit_edge.thread, label %.lr.ph

.lr.ph:                                           ; preds = %2
  %4 = getelementptr inbounds nuw i8, ptr %0, i64 %1
  %5 = ptrtoint ptr %0 to i64
  br label %6

6:                                                ; preds = %.lr.ph, %28
  %.03652 = phi i64 [ 0, %.lr.ph ], [ %.1.fr, %28 ]
  %.03751 = phi i32 [ 0, %.lr.ph ], [ %.138, %28 ]
  %.03950 = phi i64 [ 0, %.lr.ph ], [ %30, %28 ]
  %7 = getelementptr inbounds nuw i8, ptr %0, i64 %.03950
  %8 = sub i64 %1, %.03950
  %9 = tail call ptr @memchr(ptr noundef %7, i32 noundef 10, i64 noundef %8) #26
  %.not43 = icmp eq ptr %9, null
  %10 = getelementptr inbounds nuw i8, ptr %9, i64 1
  %.0 = select i1 %.not43, ptr %4, ptr %10
  %11 = sub nuw i64 %3, %.03950
  %12 = load ptr, ptr @comment_line_str, align 8, !tbaa !54
  %13 = tail call i32 @starts_with_mem(ptr noundef %7, i64 noundef %11, ptr noundef %12) #24
  %.not44 = icmp eq i32 %13, 0
  br i1 %.not44, label %14, label %17

14:                                               ; preds = %6
  %15 = load i8, ptr %7, align 1, !tbaa !11
  %16 = icmp eq i8 %15, 10
  br i1 %16, label %17, label %18

17:                                               ; preds = %14, %6
  %.not48 = icmp eq i64 %.03652, 0
  %spec.select = select i1 %.not48, i64 %.03950, i64 %.03652
  br label %28

18:                                               ; preds = %14
  %19 = tail call i32 @starts_with(ptr noundef nonnull %7, ptr noundef nonnull @.str.33) #24
  %.not45 = icmp eq i32 %19, 0
  br i1 %.not45, label %21, label %20

20:                                               ; preds = %18
  %.not47 = icmp eq i64 %.03652, 0
  %spec.select49 = select i1 %.not47, i64 %.03950, i64 %.03652
  br label %28

21:                                               ; preds = %18
  %.not46 = icmp eq i32 %.03751, 0
  br i1 %.not46, label %26, label %22

22:                                               ; preds = %21
  %23 = load i8, ptr %7, align 1, !tbaa !11
  %24 = icmp ne i8 %23, 9
  %25 = icmp ne i64 %.03652, 0
  %or.cond = and i1 %24, %25
  br i1 %or.cond, label %27, label %28

26:                                               ; preds = %21
  %.old1.not = icmp eq i64 %.03652, 0
  br i1 %.old1.not, label %28, label %27

27:                                               ; preds = %22, %26
  br label %28

28:                                               ; preds = %20, %17, %26, %27, %22
  %.138 = phi i32 [ 0, %27 ], [ 1, %22 ], [ 0, %26 ], [ %.03751, %17 ], [ 1, %20 ]
  %.1 = phi i64 [ 0, %27 ], [ %.03652, %22 ], [ 0, %26 ], [ %spec.select, %17 ], [ %spec.select49, %20 ]
  %.1.fr = freeze i64 %.1
  %29 = ptrtoint ptr %.0 to i64
  %30 = sub i64 %29, %5
  %31 = icmp ult i64 %30, %3
  br i1 %31, label %6, label %._crit_edge, !llvm.loop !203

._crit_edge:                                      ; preds = %28
  %.not = icmp eq i64 %.1.fr, 0
  br i1 %.not, label %._crit_edge.thread, label %32

._crit_edge.thread:                               ; preds = %2, %._crit_edge
  br label %32

32:                                               ; preds = %._crit_edge, %._crit_edge.thread
  %33 = phi i64 [ %3, %._crit_edge.thread ], [ %.1.fr, %._crit_edge ]
  %34 = sub i64 %1, %33
  ret i64 %34
}